target datalayout = "e-m:e-p270:32:32-p271:32:32-p272:64:64-i64:64-i128:128-f80:128-n8:16:32:64-S128"
target triple = "x86_64-pc-linux-gnu"

%struct.wtap_opttype_t = type { ptr, ptr, i32, i32 }
%struct.packet_verdict_opt_s = type { i32, %union.anon }
%union.anon = type { ptr }
%struct.packet_hash_opt_s = type { i8, ptr }
%struct.wtap_block = type { ptr, ptr, ptr, i32 }
%struct.wtap_blocktype_t = type { i32, ptr, ptr, ptr, ptr, ptr, ptr }
%struct.wtap_option_t = type { i32, %union.wtap_optval_t }
%union.wtap_optval_t = type { %struct.custom_opt_s }
%struct.custom_opt_s = type { i32, %union.anon.0 }
%union.anon.0 = type { %struct.nflx_custom_opt_data }
%struct.nflx_custom_opt_data = type { i32, i64, ptr, i8 }
%struct.generic_custom_opt_data = type { i64, ptr }
%struct.if_filter_opt_s = type { i32, %union.anon.1 }
%union.anon.1 = type { %struct.wtap_bpf_insns }
%struct.wtap_bpf_insns = type { i32, ptr }

; Function Attrs: null_pointer_is_valid sspstrong uwtable
define void @wtap_packet_hash_free(ptr noundef %0) #0 {
  %2 = alloca ptr, align 8
  store ptr %0, ptr %2, align 8
  %3 = load ptr, ptr %2, align 8
  %4 = getelementptr inbounds nuw %struct.packet_hash_opt_s, ptr %3, i32 0, i32 1
  %5 = load ptr, ptr %4, align 8
  %6 = call ptr @g_byte_array_free(ptr noundef %5, i32 noundef 1)
  ret void
}

; Function Attrs: null_pointer_is_valid sspstrong uwtable
define void @wtap_packet_verdict_free(ptr noundef %0) #0 {
  %2 = alloca ptr, align 8
  store ptr %0, ptr %2, align 8
  %3 = load ptr, ptr %2, align 8
  %4 = getelementptr inbounds nuw %struct.packet_verdict_opt_s, ptr %3, i32 0, i32 0
  %5 = load i32, ptr %4, align 8
  switch i32 %5, label %11 [
    i32 0, label %6
  ]

6:                                                ; preds = %1
  %7 = load ptr, ptr %2, align 8
  %8 = getelementptr inbounds nuw %struct.packet_verdict_opt_s, ptr %7, i32 0, i32 1
  %9 = load ptr, ptr %8, align 8
  %10 = call ptr @g_byte_array_free(ptr noundef %9, i32 noundef 1)
  br label %12

11:                                               ; preds = %1
  br label %12

12:                                               ; preds = %11, %6
  ret void
}

; Function Attrs: null_pointer_is_valid sspstrong uwtable
define internal void @if_filter_free(ptr noundef %0) #0 {
  %2 = alloca ptr, align 8
  store ptr %0, ptr %2, align 8
  %3 = load ptr, ptr %2, align 8
  %4 = getelementptr inbounds nuw %struct.if_filter_opt_s, ptr %3, i32 0, i32 0
  %5 = load i32, ptr %4, align 8
  switch i32 %5, label %15 [
    i32 0, label %6
    i32 1, label %10
  ]

6:                                                ; preds = %1
  %7 = load ptr, ptr %2, align 8
  %8 = getelementptr inbounds nuw %struct.if_filter_opt_s, ptr %7, i32 0, i32 1
  %9 = load ptr, ptr %8, align 8
  call void @g_free(ptr noundef %9)
  br label %16

10:                                               ; preds = %1
  %11 = load ptr, ptr %2, align 8
  %12 = getelementptr inbounds nuw %struct.if_filter_opt_s, ptr %11, i32 0, i32 1
  %13 = getelementptr inbounds nuw %struct.wtap_bpf_insns, ptr %12, i32 0, i32 1
  %14 = load ptr, ptr %13, align 8
  call void @g_free(ptr noundef %14)
  br label %16

15:                                               ; preds = %1
  br label %16

16:                                               ; preds = %15, %10, %6
  ret void
}

; Function Attrs: null_pointer_is_valid sspstrong uwtable
define internal void @wtap_block_free_option(ptr noundef %0, ptr noundef %1) #0 {
  %3 = alloca ptr, align 8
  %4 = alloca ptr, align 8
  %5 = alloca ptr, align 8
  %6 = alloca i32, align 4
  store ptr %0, ptr %3, align 8
  store ptr %1, ptr %4, align 8
  call void @llvm.lifetime.start.p0(i64 8, ptr %5) #15
  %7 = load ptr, ptr %3, align 8
  %8 = icmp eq ptr %7, null
  br i1 %8, label %9, label %10

9:                                                ; preds = %2
  store i32 1, ptr %6, align 4
  br label %62

10:                                               ; preds = %2
  %11 = load ptr, ptr %3, align 8
  %12 = getelementptr inbounds nuw %struct.wtap_block, ptr %11, i32 0, i32 0
  %13 = load ptr, ptr %12, align 8
  %14 = getelementptr inbounds nuw %struct.wtap_blocktype_t, ptr %13, i32 0, i32 6
  %15 = load ptr, ptr %14, align 8
  %16 = load ptr, ptr %4, align 8
  %17 = getelementptr inbounds nuw %struct.wtap_option_t, ptr %16, i32 0, i32 0
  %18 = load i32, ptr %17, align 8
  %19 = zext i32 %18 to i64
  %20 = inttoptr i64 %19 to ptr
  %21 = call ptr @g_hash_table_lookup(ptr noundef %15, ptr noundef %20)
  store ptr %21, ptr %5, align 8
  %22 = load ptr, ptr %5, align 8
  %23 = getelementptr inbounds nuw %struct.wtap_opttype_t, ptr %22, i32 0, i32 2
  %24 = load i32, ptr %23, align 8
  switch i32 %24, label %60 [
    i32 3, label %25
    i32 4, label %29
    i32 7, label %33
    i32 8, label %51
    i32 9, label %54
    i32 10, label %57
  ]

25:                                               ; preds = %10
  %26 = load ptr, ptr %4, align 8
  %27 = getelementptr inbounds nuw %struct.wtap_option_t, ptr %26, i32 0, i32 1
  %28 = load ptr, ptr %27, align 8
  call void @g_free(ptr noundef %28)
  br label %61

29:                                               ; preds = %10
  %30 = load ptr, ptr %4, align 8
  %31 = getelementptr inbounds nuw %struct.wtap_option_t, ptr %30, i32 0, i32 1
  %32 = load ptr, ptr %31, align 8
  call void @g_bytes_unref(ptr noundef %32)
  br label %61

33:                                               ; preds = %10
  %34 = load ptr, ptr %4, align 8
  %35 = getelementptr inbounds nuw %struct.wtap_option_t, ptr %34, i32 0, i32 1
  %36 = getelementptr inbounds nuw %struct.custom_opt_s, ptr %35, i32 0, i32 0
  %37 = load i32, ptr %36, align 8
  switch i32 %37, label %44 [
    i32 10949, label %38
  ]

38:                                               ; preds = %33
  %39 = load ptr, ptr %4, align 8
  %40 = getelementptr inbounds nuw %struct.wtap_option_t, ptr %39, i32 0, i32 1
  %41 = getelementptr inbounds nuw %struct.custom_opt_s, ptr %40, i32 0, i32 1
  %42 = getelementptr inbounds nuw %struct.nflx_custom_opt_data, ptr %41, i32 0, i32 2
  %43 = load ptr, ptr %42, align 8
  call void @g_free(ptr noundef %43)
  br label %50

44:                                               ; preds = %33
  %45 = load ptr, ptr %4, align 8
  %46 = getelementptr inbounds nuw %struct.wtap_option_t, ptr %45, i32 0, i32 1
  %47 = getelementptr inbounds nuw %struct.custom_opt_s, ptr %46, i32 0, i32 1
  %48 = getelementptr inbounds nuw %struct.generic_custom_opt_data, ptr %47, i32 0, i32 1
  %49 = load ptr, ptr %48, align 8
  call void @g_free(ptr noundef %49)
  br label %50

50:                                               ; preds = %44, %38
  br label %61

51:                                               ; preds = %10
  %52 = load ptr, ptr %4, align 8
  %53 = getelementptr inbounds nuw %struct.wtap_option_t, ptr %52, i32 0, i32 1
  call void @if_filter_free(ptr noundef %53)
  br label %61

54:                                               ; preds = %10
  %55 = load ptr, ptr %4, align 8
  %56 = getelementptr inbounds nuw %struct.wtap_option_t, ptr %55, i32 0, i32 1
  call void @wtap_packet_verdict_free(ptr noundef %56)
  br label %61

57:                                               ; preds = %10
  %58 = load ptr, ptr %4, align 8
  %59 = getelementptr inbounds nuw %struct.wtap_option_t, ptr %58, i32 0, i32 1
  call void @wtap_packet_hash_free(ptr noundef %59)
  br label %61

60:                                               ; preds = %10
  br label %61

61:                                               ; preds = %60, %57, %54, %51, %50, %29, %25
  store i32 0, ptr %6, align 4
  br label %62

62:                                               ; preds = %61, %9
  call void @llvm.lifetime.end.p0(i64 8, ptr %5) #15
  %63 = load i32, ptr %6, align 4
  switch i32 %63, label %65 [
    i32 0, label %64
    i32 1, label %64
  ]

64:                                               ; preds = %62, %62
  ret void

65:                                               ; preds = %62
  unreachable
}