; Function Attrs: null_pointer_is_valid sspstrong uwtable
define internal fastcc void @wtap_block_free_option(ptr %.0.val.48.val, ptr noundef readonly captures(none) %0) unnamed_addr #0 {
  %2 = load i32, ptr %0, align 8
  %3 = zext i32 %2 to i64
  %4 = inttoptr i64 %3 to ptr
  %5 = tail call ptr @g_hash_table_lookup(ptr noundef %.0.val.48.val, ptr noundef %4)
  %6 = getelementptr inbounds nuw i8, ptr %5, i64 16
  %7 = load i32, ptr %6, align 8
  switch i32 %7, label %if_filter_free.exit [
    i32 3, label %8
    i32 4, label %11
    i32 7, label %14
    i32 8, label %23
    i32 9, label %29
    i32 10, label %36
  ]

8:                                                ; preds = %1
  %9 = getelementptr inbounds nuw i8, ptr %0, i64 8
  %10 = load ptr, ptr %9, align 8
  tail call void @g_free(ptr noundef %10)
  br label %if_filter_free.exit

11:                                               ; preds = %1
  %12 = getelementptr inbounds nuw i8, ptr %0, i64 8
  %13 = load ptr, ptr %12, align 8
  tail call void @g_bytes_unref(ptr noundef %13)
  br label %if_filter_free.exit

14:                                               ; preds = %1
  %15 = getelementptr inbounds nuw i8, ptr %0, i64 8
  %16 = load i32, ptr %15, align 8
  %cond = icmp eq i32 %16, 10949
  br i1 %cond, label %17, label %20

17:                                               ; preds = %14
  %18 = getelementptr inbounds nuw i8, ptr %0, i64 32
  %19 = load ptr, ptr %18, align 8
  tail call void @g_free(ptr noundef %19)
  br label %if_filter_free.exit

20:                                               ; preds = %14
  %21 = getelementptr inbounds nuw i8, ptr %0, i64 24
  %22 = load ptr, ptr %21, align 8
  tail call void @g_free(ptr noundef %22)
  br label %if_filter_free.exit

23:                                               ; preds = %1
  %24 = getelementptr inbounds nuw i8, ptr %0, i64 8
  %25 = load i32, ptr %24, align 8
  switch i32 %25, label %if_filter_free.exit [
    i32 0, label %.sink.split.i
    i32 1, label %26
  ]

26:                                               ; preds = %23
  br label %.sink.split.i

.sink.split.i:                                    ; preds = %26, %23
  %.sink.i = phi i64 [ 16, %26 ], [ 8, %23 ]
  %27 = getelementptr inbounds nuw i8, ptr %24, i64 %.sink.i
  %28 = load ptr, ptr %27, align 8
  tail call void @g_free(ptr noundef %28)
  br label %if_filter_free.exit

29:                                               ; preds = %1
  %30 = getelementptr inbounds nuw i8, ptr %0, i64 8
  %31 = load i32, ptr %30, align 8
  %cond.i = icmp eq i32 %31, 0
  br i1 %cond.i, label %32, label %if_filter_free.exit

32:                                               ; preds = %29
  %33 = getelementptr inbounds nuw i8, ptr %0, i64 16
  %34 = load ptr, ptr %33, align 8
  %35 = tail call ptr @g_byte_array_free(ptr noundef %34, i32 noundef 1)
  br label %if_filter_free.exit

36:                                               ; preds = %1
  %37 = getelementptr inbounds nuw i8, ptr %0, i64 16
  %38 = load ptr, ptr %37, align 8
  %39 = tail call ptr @g_byte_array_free(ptr noundef %38, i32 noundef 1)
  br label %if_filter_free.exit

if_filter_free.exit:                              ; preds = %32, %29, %.sink.split.i, %23, %8, %11, %36, %20, %17, %1
  ret void
}